	.section	__TEXT,__text,regular,pure_instructions
	.build_version macos, 10, 14	sdk_version 10, 14
	.globl	_MySub                  ## -- Begin function MySub
	.p2align	4, 0x90
_MySub:                                 ## @MySub
	.cfi_startproc
## %bb.0:
	pushq	%rbp
	.cfi_def_cfa_offset 16
	.cfi_offset %rbp, -16
	movq	%rsp, %rbp
	.cfi_def_cfa_register %rbp
	popq	%rbp
	retq
	.cfi_endproc
                                        ## -- End function
	.globl	_MyFunc                 ## -- Begin function MyFunc
	.p2align	4, 0x90
_MyFunc:                                ## @MyFunc
	.cfi_startproc
## %bb.0:
	pushq	%rbp
	.cfi_def_cfa_offset 16
	.cfi_offset %rbp, -16
	movq	%rsp, %rbp
	.cfi_def_cfa_register %rbp
	subq	$16, %rsp
	movl	$0, -4(%rbp)
LBB1_1:                                 ## =>This Inner Loop Header: Depth=1
	cmpl	$10, -4(%rbp)
	jge	LBB1_4
## %bb.2:                               ##   in Loop: Header=BB1_1 Depth=1
	callq	_MySub
## %bb.3:                               ##   in Loop: Header=BB1_1 Depth=1
	movl	-4(%rbp), %eax
	addl	$1, %eax
	movl	%eax, -4(%rbp)
	jmp	LBB1_1
LBB1_4:
	addq	$16, %rsp
	popq	%rbp
	retq
	.cfi_endproc
                                        ## -- End function

.subsections_via_symbols
